target datalayout = "e-m:e-p270:32:32-p271:32:32-p272:64:64-i64:64-i128:128-f80:128-n8:16:32:64-S128"
target triple = "x86_64-pc-linux-gnu"

%struct.filelist = type { i8, i8, ptr }
%struct.file = type { i32, i32, ptr, ptr }

; Function Attrs: nounwind uwtable
define internal void @up_irq_enable() #0 {
  call void asm sideeffect "sti", "~{memory},~{dirflag},~{fpsr},~{flags}"() #6, !srcloc !20
  ret void
}

; Function Attrs: nounwind uwtable
define internal zeroext i1 @up_irq_enabled(i64 noundef %0) #0 {
  %2 = alloca i64, align 8
  store i64 %0, ptr %2, align 8
  %3 = load i64, ptr %2, align 8
  %4 = and i64 %3, 512
  %5 = icmp ne i64 %4, 0
  ret i1 %5
}

; Function Attrs: nounwind uwtable
define internal void @up_irq_disable() #0 {
  call void asm sideeffect "cli", "~{memory},~{dirflag},~{fpsr},~{flags}"() #6, !srcloc !18
  ret void
}

; Function Attrs: nounwind uwtable
define internal i64 @irqflags() #0 {
  %1 = alloca i64, align 8
  call void asm sideeffect "\09pushfq\0A\09popq $0\0A", "=*rm,~{memory},~{dirflag},~{fpsr},~{flags}"(ptr elementtype(i64) %1) #6, !srcloc !19
  %2 = load i64, ptr %1, align 8
  ret i64 %2
}

; Function Attrs: nounwind uwtable
define internal void @up_irq_restore(i64 noundef %0) #0 {
  %2 = alloca i64, align 8
  store i64 %0, ptr %2, align 8
  %3 = load i64, ptr %2, align 8
  %4 = call zeroext i1 @up_irq_enabled(i64 noundef %3)
  br i1 %4, label %5, label %6

5:                                                ; preds = %1
  call void @up_irq_enable()
  br label %6

6:                                                ; preds = %5, %1
  ret void
}

; Function Attrs: nounwind uwtable
define internal i64 @up_irq_save() #0 {
  %1 = alloca i64, align 8
  %2 = call i64 @irqflags()
  store i64 %2, ptr %1, align 8
  call void @up_irq_disable()
  %3 = load i64, ptr %1, align 8
  ret i64 %3
}

; Function Attrs: nounwind uwtable
define internal ptr @files_fget_by_index(ptr noundef %0, i32 noundef %1, i32 noundef %2) #0 {
  %4 = alloca ptr, align 8
  %5 = alloca i32, align 4
  %6 = alloca i32, align 4
  %7 = alloca ptr, align 8
  %8 = alloca i64, align 8
  store ptr %0, ptr %4, align 8
  store i32 %1, ptr %5, align 4
  store i32 %2, ptr %6, align 4
  %9 = call i64 @up_irq_save()
  store i64 %9, ptr %8, align 8
  %10 = load ptr, ptr %4, align 8
  %11 = getelementptr inbounds %struct.filelist, ptr %10, i32 0, i32 2
  %12 = load ptr, ptr %11, align 8
  %13 = load i32, ptr %5, align 4
  %14 = sext i32 %13 to i64
  %15 = getelementptr inbounds ptr, ptr %12, i64 %14
  %16 = load ptr, ptr %15, align 8
  %17 = load i32, ptr %6, align 4
  %18 = sext i32 %17 to i64
  %19 = getelementptr inbounds %struct.file, ptr %16, i64 %18
  store ptr %19, ptr %7, align 8
  %20 = load i64, ptr %8, align 8
  call void @up_irq_restore(i64 noundef %20)
  %21 = load ptr, ptr %7, align 8
  ret ptr %21
}

; Function Attrs: nounwind uwtable
define ptr @files_fget(ptr noundef %0, i32 noundef %1) #0 {
  %3 = alloca ptr, align 8
  %4 = alloca i32, align 4
  store ptr %0, ptr %3, align 8
  store i32 %1, ptr %4, align 4
  %5 = load ptr, ptr %3, align 8
  %6 = load i32, ptr %4, align 4
  %7 = sdiv i32 %6, 8
  %8 = load i32, ptr %4, align 4
  %9 = srem i32 %8, 8
  %10 = call ptr @files_fget_by_index(ptr noundef %5, i32 noundef %7, i32 noundef %9)
  ret ptr %10
}

; Function Attrs: nounwind uwtable
define i32 @files_countlist(ptr noundef %0) #0 {
  %2 = alloca ptr, align 8
  store ptr %0, ptr %2, align 8
  %3 = load ptr, ptr %2, align 8
  %4 = getelementptr inbounds %struct.filelist, ptr %3, i32 0, i32 1
  %5 = load i8, ptr %4, align 1
  %6 = zext i8 %5 to i32
  %7 = mul nsw i32 %6, 8
  ret i32 %7
}

; Function Attrs: nounwind uwtable
define internal i32 @nx_dup3_from_tcb(ptr noundef %0, i32 noundef %1, i32 noundef %2, i32 noundef %3) #0 {
  %5 = alloca i32, align 4
  %6 = alloca ptr, align 8
  %7 = alloca i32, align 4
  %8 = alloca i32, align 4
  %9 = alloca i32, align 4
  %10 = alloca ptr, align 8
  %11 = alloca ptr, align 8
  %12 = alloca %struct.file, align 8
  %13 = alloca i32, align 4
  %14 = alloca i32, align 4
  store ptr %0, ptr %6, align 8
  store i32 %1, ptr %7, align 4
  store i32 %2, ptr %8, align 4
  store i32 %3, ptr %9, align 4
  %15 = load i32, ptr %7, align 4
  %16 = load i32, ptr %8, align 4
  %17 = icmp eq i32 %15, %16
  br i1 %17, label %18, label %20

18:                                               ; preds = %4
  %19 = load i32, ptr %7, align 4
  store i32 %19, ptr %5, align 4
  br label %72

20:                                               ; preds = %4
  %21 = load ptr, ptr %6, align 8
  %22 = call ptr @nxsched_get_files_from_tcb(ptr noundef %21)
  store ptr %22, ptr %10, align 8
  %23 = load ptr, ptr %10, align 8
  %24 = call i32 @files_countlist(ptr noundef %23)
  store i32 %24, ptr %13, align 4
  %25 = load i32, ptr %7, align 4
  %26 = icmp slt i32 %25, 0
  br i1 %26, label %34, label %27

27:                                               ; preds = %20
  %28 = load i32, ptr %7, align 4
  %29 = load i32, ptr %13, align 4
  %30 = icmp sge i32 %28, %29
  br i1 %30, label %34, label %31

31:                                               ; preds = %27
  %32 = load i32, ptr %8, align 4
  %33 = icmp slt i32 %32, 0
  br i1 %33, label %34, label %35

34:                                               ; preds = %31, %27, %20
  store i32 -9, ptr %5, align 4
  br label %72

35:                                               ; preds = %31
  %36 = load i32, ptr %8, align 4
  %37 = load i32, ptr %13, align 4
  %38 = icmp sge i32 %36, %37
  br i1 %38, label %39, label %51

39:                                               ; preds = %35
  %40 = load ptr, ptr %10, align 8
  %41 = load i32, ptr %8, align 4
  %42 = sdiv i32 %41, 8
  %43 = add nsw i32 %42, 1
  %44 = sext i32 %43 to i64
  %45 = call i32 @files_extend(ptr noundef %40, i64 noundef %44)
  store i32 %45, ptr %14, align 4
  %46 = load i32, ptr %14, align 4
  %47 = icmp slt i32 %46, 0
  br i1 %47, label %48, label %50

48:                                               ; preds = %39
  %49 = load i32, ptr %14, align 4
  store i32 %49, ptr %5, align 4
  br label %72

50:                                               ; preds = %39
  br label %51

51:                                               ; preds = %50, %35
  %52 = load ptr, ptr %10, align 8
  %53 = load i32, ptr %8, align 4
  %54 = call ptr @files_fget(ptr noundef %52, i32 noundef %53)
  store ptr %54, ptr %11, align 8
  %55 = load ptr, ptr %11, align 8
  call void @llvm.memcpy.p0.p0.i64(ptr align 8 %12, ptr align 8 %55, i64 24, i1 false)
  %56 = load ptr, ptr %11, align 8
  call void @llvm.memset.p0.i64(ptr align 8 %56, i8 0, i64 24, i1 false)
  %57 = load ptr, ptr %10, align 8
  %58 = load i32, ptr %7, align 4
  %59 = call ptr @files_fget(ptr noundef %57, i32 noundef %58)
  %60 = load ptr, ptr %11, align 8
  %61 = load i32, ptr %9, align 4
  %62 = call i32 @file_dup3(ptr noundef %59, ptr noundef %60, i32 noundef %61)
  store i32 %62, ptr %14, align 4
  %63 = call i32 @file_close(ptr noundef %12)
  %64 = load i32, ptr %14, align 4
  %65 = icmp slt i32 %64, 0
  br i1 %65, label %66, label %68

66:                                               ; preds = %51
  %67 = load i32, ptr %14, align 4
  br label %70

68:                                               ; preds = %51
  %69 = load i32, ptr %8, align 4
  br label %70

70:                                               ; preds = %68, %66
  %71 = phi i32 [ %67, %66 ], [ %69, %68 ]
  store i32 %71, ptr %5, align 4
  br label %72

72:                                               ; preds = %70, %48, %34, %18
  %73 = load i32, ptr %5, align 4
  ret i32 %73
}