; Function Attrs: nounwind uwtable
define internal fastcc i32 @nx_dup3_from_tcb(ptr noundef %0, i32 noundef %1, i32 noundef %2, i32 noundef %3) unnamed_addr #1 {
  %5 = alloca i64, align 8
  %6 = alloca i64, align 8
  %7 = alloca %struct.file, align 8
  %8 = icmp eq i32 %1, %2
  br i1 %8, label %50, label %9

9:                                                ; preds = %4
  %10 = tail call ptr @nxsched_get_files_from_tcb(ptr noundef %0) #10
  %11 = getelementptr inbounds nuw i8, ptr %10, i64 1
  %12 = load i8, ptr %11, align 1
  %13 = zext i8 %12 to i32
  %14 = shl nuw nsw i32 %13, 3
  %15 = icmp slt i32 %1, 0
  br i1 %15, label %50, label %16

16:                                               ; preds = %9
  %17 = icmp samesign uge i32 %1, %14
  %18 = icmp slt i32 %2, 0
  %or.cond = or i1 %18, %17
  br i1 %or.cond, label %50, label %19

19:                                               ; preds = %16
  %.not = icmp samesign ult i32 %2, %14
  %.pre = lshr i32 %2, 3
  br i1 %.not, label %._crit_edge, label %20

20:                                               ; preds = %19
  %21 = add nuw nsw i32 %.pre, 1
  %22 = zext nneg i32 %21 to i64
  %23 = tail call fastcc i32 @files_extend(ptr noundef nonnull %10, i64 noundef %22)
  %24 = icmp slt i32 %23, 0
  br i1 %24, label %50, label %._crit_edge

._crit_edge:                                      ; preds = %19, %20
  call void @llvm.lifetime.start.p0(i64 8, ptr nonnull %6)
  call void asm sideeffect "\09pushfq\0A\09popq $0\0A", "=*rm,~{memory},~{dirflag},~{fpsr},~{flags}"(ptr nonnull elementtype(i64) %6) #10, !srcloc !9
  %25 = load i64, ptr %6, align 8
  call void @llvm.lifetime.end.p0(i64 8, ptr nonnull %6)
  call void asm sideeffect "cli", "~{memory},~{dirflag},~{fpsr},~{flags}"() #10, !srcloc !10
  %26 = getelementptr inbounds nuw i8, ptr %10, i64 8
  %27 = load ptr, ptr %26, align 8
  %28 = zext nneg i32 %.pre to i64
  %29 = getelementptr inbounds nuw ptr, ptr %27, i64 %28
  %30 = load ptr, ptr %29, align 8
  %31 = and i64 %25, 512
  %.not.i.i.i = icmp eq i64 %31, 0
  br i1 %.not.i.i.i, label %files_fget.exit, label %32

32:                                               ; preds = %._crit_edge
  call void asm sideeffect "sti", "~{memory},~{dirflag},~{fpsr},~{flags}"() #10, !srcloc !11
  br label %files_fget.exit

files_fget.exit:                                  ; preds = %._crit_edge, %32
  %33 = and i32 %2, 7
  %34 = zext nneg i32 %33 to i64
  %35 = getelementptr inbounds nuw %struct.file, ptr %30, i64 %34
  call void @llvm.memcpy.p0.p0.i64(ptr noundef nonnull align 8 dereferenceable(24) %7, ptr noundef nonnull align 8 dereferenceable(24) %35, i64 24, i1 false)
  call void @llvm.memset.p0.i64(ptr noundef nonnull align 8 dereferenceable(24) %35, i8 0, i64 24, i1 false)
  %36 = lshr i32 %1, 3
  call void @llvm.lifetime.start.p0(i64 8, ptr nonnull %5)
  call void asm sideeffect "\09pushfq\0A\09popq $0\0A", "=*rm,~{memory},~{dirflag},~{fpsr},~{flags}"(ptr nonnull elementtype(i64) %5) #10, !srcloc !9
  %37 = load i64, ptr %5, align 8
  call void @llvm.lifetime.end.p0(i64 8, ptr nonnull %5)
  call void asm sideeffect "cli", "~{memory},~{dirflag},~{fpsr},~{flags}"() #10, !srcloc !10
  %38 = load ptr, ptr %26, align 8
  %39 = zext nneg i32 %36 to i64
  %40 = getelementptr inbounds nuw ptr, ptr %38, i64 %39
  %41 = load ptr, ptr %40, align 8
  %42 = and i64 %37, 512
  %.not.i.i.i31 = icmp eq i64 %42, 0
  br i1 %.not.i.i.i31, label %files_fget.exit32, label %43

43:                                               ; preds = %files_fget.exit
  call void asm sideeffect "sti", "~{memory},~{dirflag},~{fpsr},~{flags}"() #10, !srcloc !11
  br label %files_fget.exit32

files_fget.exit32:                                ; preds = %files_fget.exit, %43
  %.zext34 = and i32 %1, 7
  %44 = zext nneg i32 %.zext34 to i64
  %45 = getelementptr inbounds nuw %struct.file, ptr %41, i64 %44
  %46 = call i32 @file_dup3(ptr noundef %45, ptr noundef nonnull %35, i32 noundef %3) #10
  %47 = call i32 @file_close(ptr noundef nonnull %7) #10
  %48 = icmp slt i32 %46, 0
  %49 = select i1 %48, i32 %46, i32 %2
  br label %50

50:                                               ; preds = %20, %9, %16, %4, %files_fget.exit32
  %.0 = phi i32 [ %49, %files_fget.exit32 ], [ %1, %4 ], [ -9, %16 ], [ -9, %9 ], [ %23, %20 ]
  ret i32 %.0
}